target datalayout = "e-m:e-p270:32:32-p271:32:32-p272:64:64-i64:64-i128:128-f80:128-n8:16:32:64-S128"
target triple = "x86_64-pc-linux-gnu"

%struct._capture_file = type { ptr, i32, ptr, ptr, i8, i8, i8, i64, i16, i32, i32, i32, ptr, i32, i64, i32, i32, i32, i32, i8, i32, %struct.nstime_t, i32, ptr, ptr, ptr, i8, i8, i32, ptr, i8, i8, i8, i8, i8, i32, i32, i8, ptr, i32, i32, i8, %struct.packet_provider_data, i32, i32, %struct.epan_column_info, ptr, ptr, ptr, %struct.wtap_rec, %struct.Buffer, ptr, i64, i32 }
%struct.nstime_t = type { i64, i32 }
%struct.packet_provider_data = type { ptr, ptr, ptr, ptr, ptr, ptr }
%struct.epan_column_info = type { ptr, i32, ptr, ptr, ptr, %struct.col_expr_t, i8, ptr }
%struct.col_expr_t = type { ptr, ptr }
%struct.wtap_rec = type { i32, i32, i32, %struct.nstime_t, i32, %struct.nstime_t, i8, %union.anon, ptr, i8, %struct.Buffer, %struct.Buffer }
%union.anon = type { %struct.wtap_packet_header }
%struct.wtap_packet_header = type { i32, i32, i32, i32, %union.wtap_pseudo_header }
%union.wtap_pseudo_header = type { %struct.erf_mc_phdr }
%struct.erf_mc_phdr = type { %struct.erf_phdr, [16 x %struct.erf_ehdr], %union.anon.1 }
%struct.erf_phdr = type { i64, i8, i8, i16, i16, i16 }
%struct.erf_ehdr = type { i64 }
%union.anon.1 = type { i32 }
%struct.Buffer = type { ptr, i64, i64, i64 }
%struct.save_callback_args_t = type { ptr, ptr, i32, i8 }
%struct.wtap_dump_params = type { i32, i32, i32, ptr, ptr, ptr, ptr, ptr, ptr, ptr, i8 }

@.str.45 = private unnamed_addr constant [4 x i8] c"%s~\00", align 1
@.str.48 = private unnamed_addr constant [8 x i8] c"Writing\00", align 1
@.str.49 = private unnamed_addr constant [18 x i8] c"specified records\00", align 1

; Function Attrs: null_pointer_is_valid sspstrong uwtable
define hidden i32 @cf_export_specified_packets(ptr noundef %0, ptr noundef %1, ptr noundef %2, i32 noundef %3, i32 noundef %4) #1 {
  %6 = alloca i32, align 4
  %7 = alloca ptr, align 8
  %8 = alloca ptr, align 8
  %9 = alloca ptr, align 8
  %10 = alloca i32, align 4
  %11 = alloca i32, align 4
  %12 = alloca ptr, align 8
  %13 = alloca i32, align 4
  %14 = alloca ptr, align 8
  %15 = alloca ptr, align 8
  %16 = alloca %struct.save_callback_args_t, align 8
  %17 = alloca %struct.wtap_dump_params, align 8
  %18 = alloca i32, align 4
  %19 = alloca i32, align 4
  store ptr %0, ptr %7, align 8
  store ptr %1, ptr %8, align 8
  store ptr %2, ptr %9, align 8
  store i32 %3, ptr %10, align 4
  store i32 %4, ptr %11, align 4
  call void @llvm.lifetime.start.p0(i64 8, ptr %12) #19
  store ptr null, ptr %12, align 8
  call void @llvm.lifetime.start.p0(i64 4, ptr %13) #19
  call void @llvm.lifetime.start.p0(i64 8, ptr %14) #19
  call void @llvm.lifetime.start.p0(i64 8, ptr %15) #19
  call void @llvm.lifetime.start.p0(i64 24, ptr %16) #19
  call void @llvm.lifetime.start.p0(i64 80, ptr %17) #19
  call void @llvm.lifetime.start.p0(i64 4, ptr %18) #19
  %20 = getelementptr inbounds nuw %struct.save_callback_args_t, ptr %16, i32 0, i32 3
  store i8 1, ptr %20, align 4
  %21 = load ptr, ptr %9, align 8
  call void @packet_range_process_init(ptr noundef %21)
  %22 = load ptr, ptr %7, align 8
  %23 = getelementptr inbounds nuw %struct._capture_file, ptr %22, i32 0, i32 42
  %24 = getelementptr inbounds nuw %struct.packet_provider_data, ptr %23, i32 0, i32 0
  %25 = load ptr, ptr %24, align 8
  call void @wtap_dump_params_init(ptr noundef %17, ptr noundef %25)
  %26 = load ptr, ptr %7, align 8
  %27 = getelementptr inbounds nuw %struct._capture_file, ptr %26, i32 0, i32 12
  %28 = load ptr, ptr %27, align 8
  %29 = call i32 @wtap_dump_required_file_encap_type(ptr noundef %28)
  store i32 %29, ptr %18, align 4
  %30 = load i32, ptr %18, align 4
  %31 = getelementptr inbounds nuw %struct.wtap_dump_params, ptr %17, i32 0, i32 0
  store i32 %30, ptr %31, align 8
  %32 = load ptr, ptr %7, align 8
  %33 = getelementptr inbounds nuw %struct._capture_file, ptr %32, i32 0, i32 22
  %34 = load i32, ptr %33, align 8
  %35 = getelementptr inbounds nuw %struct.wtap_dump_params, ptr %17, i32 0, i32 1
  store i32 %34, ptr %35, align 4
  %36 = load ptr, ptr %8, align 8
  %37 = call zeroext i1 @file_exists(ptr noundef %36)
  br i1 %37, label %38, label %45

38:                                               ; preds = %5
  %39 = load ptr, ptr %8, align 8
  %40 = call noalias ptr (ptr, ptr, ...) @wmem_strdup_printf(ptr noundef null, ptr noundef @.str.45, ptr noundef %39)
  store ptr %40, ptr %12, align 8
  %41 = load ptr, ptr %12, align 8
  %42 = load i32, ptr %10, align 4
  %43 = load i32, ptr %11, align 4
  %44 = call ptr @wtap_dump_open(ptr noundef %41, i32 noundef %42, i32 noundef %43, ptr noundef %17, ptr noundef %13, ptr noundef %14)
  store ptr %44, ptr %15, align 8
  br label %50

45:                                               ; preds = %5
  %46 = load ptr, ptr %8, align 8
  %47 = load i32, ptr %10, align 4
  %48 = load i32, ptr %11, align 4
  %49 = call ptr @wtap_dump_open(ptr noundef %46, i32 noundef %47, i32 noundef %48, ptr noundef %17, ptr noundef %13, ptr noundef %14)
  store ptr %49, ptr %15, align 8
  br label %50

50:                                               ; preds = %45, %38
  %51 = getelementptr inbounds nuw %struct.wtap_dump_params, ptr %17, i32 0, i32 5
  %52 = load ptr, ptr %51, align 8
  call void @g_free(ptr noundef %52)
  %53 = getelementptr inbounds nuw %struct.wtap_dump_params, ptr %17, i32 0, i32 5
  store ptr null, ptr %53, align 8
  %54 = load ptr, ptr %15, align 8
  %55 = icmp eq ptr %54, null
  br i1 %55, label %56, label %61

56:                                               ; preds = %50
  %57 = load ptr, ptr %8, align 8
  %58 = load i32, ptr %13, align 4
  %59 = load ptr, ptr %14, align 8
  %60 = load i32, ptr %10, align 4
  call void @report_cfile_dump_open_failure(ptr noundef %57, i32 noundef %58, ptr noundef %59, i32 noundef %60)
  br label %110

61:                                               ; preds = %50
  %62 = load ptr, ptr %15, align 8
  %63 = call ptr @get_addrinfo_list()
  %64 = call zeroext i1 @wtap_dump_set_addrinfo_list(ptr noundef %62, ptr noundef %63)
  %65 = load ptr, ptr %15, align 8
  %66 = getelementptr inbounds nuw %struct.save_callback_args_t, ptr %16, i32 0, i32 0
  store ptr %65, ptr %66, align 8
  %67 = load ptr, ptr %8, align 8
  %68 = getelementptr inbounds nuw %struct.save_callback_args_t, ptr %16, i32 0, i32 1
  store ptr %67, ptr %68, align 8
  %69 = load i32, ptr %10, align 4
  %70 = getelementptr inbounds nuw %struct.save_callback_args_t, ptr %16, i32 0, i32 2
  store i32 %69, ptr %70, align 8
  %71 = load ptr, ptr %7, align 8
  %72 = load ptr, ptr %9, align 8
  %73 = call i32 @process_specified_records(ptr noundef %71, ptr noundef %72, ptr noundef @.str.48, ptr noundef @.str.49, i1 noundef zeroext true, ptr noundef @save_record, ptr noundef %16, i1 noundef zeroext true)
  switch i32 %73, label %87 [
    i32 0, label %87
    i32 1, label %74
    i32 2, label %84
  ]

74:                                               ; preds = %61
  %75 = load ptr, ptr %15, align 8
  %76 = call zeroext i1 @wtap_dump_close(ptr noundef %75, ptr noundef null, ptr noundef %13, ptr noundef %14)
  %77 = load ptr, ptr %12, align 8
  %78 = icmp ne ptr %77, null
  br i1 %78, label %79, label %83

79:                                               ; preds = %74
  %80 = load ptr, ptr %12, align 8
  %81 = call i32 @unlink(ptr noundef %80) #19
  %82 = load ptr, ptr %12, align 8
  call void @g_free(ptr noundef %82)
  br label %83

83:                                               ; preds = %79, %74
  call void @wtap_dump_params_cleanup(ptr noundef %17)
  store i32 2, ptr %6, align 4
  store i32 1, ptr %19, align 4
  br label %118

84:                                               ; preds = %61
  %85 = load ptr, ptr %15, align 8
  %86 = call zeroext i1 @wtap_dump_close(ptr noundef %85, ptr noundef null, ptr noundef %13, ptr noundef %14)
  br label %110

87:                                               ; preds = %61, %61
  %88 = load ptr, ptr %15, align 8
  %89 = call zeroext i1 @wtap_dump_close(ptr noundef %88, ptr noundef null, ptr noundef %13, ptr noundef %14)
  br i1 %89, label %94, label %90

90:                                               ; preds = %87
  %91 = load ptr, ptr %8, align 8
  %92 = load i32, ptr %13, align 4
  %93 = load ptr, ptr %14, align 8
  call void @report_cfile_close_failure(ptr noundef %91, i32 noundef %92, ptr noundef %93)
  br label %110

94:                                               ; preds = %87
  %95 = load ptr, ptr %12, align 8
  %96 = icmp ne ptr %95, null
  br i1 %96, label %97, label %109

97:                                               ; preds = %94
  %98 = load ptr, ptr %12, align 8
  %99 = load ptr, ptr %8, align 8
  %100 = call i32 @rename(ptr noundef %98, ptr noundef %99) #19
  %101 = icmp eq i32 %100, -1
  br i1 %101, label %102, label %107

102:                                              ; preds = %97
  %103 = load ptr, ptr %12, align 8
  %104 = load ptr, ptr %8, align 8
  %105 = call ptr @__errno_location() #26
  %106 = load i32, ptr %105, align 4
  call void @report_rename_failure(ptr noundef %103, ptr noundef %104, i32 noundef %106)
  br label %110

107:                                              ; preds = %97
  %108 = load ptr, ptr %12, align 8
  call void @g_free(ptr noundef %108)
  br label %109

109:                                              ; preds = %107, %94
  call void @wtap_dump_params_cleanup(ptr noundef %17)
  store i32 0, ptr %6, align 4
  store i32 1, ptr %19, align 4
  br label %118

110:                                              ; preds = %102, %90, %84, %56
  %111 = load ptr, ptr %12, align 8
  %112 = icmp ne ptr %111, null
  br i1 %112, label %113, label %117

113:                                              ; preds = %110
  %114 = load ptr, ptr %12, align 8
  %115 = call i32 @unlink(ptr noundef %114) #19
  %116 = load ptr, ptr %12, align 8
  call void @g_free(ptr noundef %116)
  br label %117

117:                                              ; preds = %113, %110
  call void @wtap_dump_params_cleanup(ptr noundef %17)
  store i32 1, ptr %6, align 4
  store i32 1, ptr %19, align 4
  br label %118

118:                                              ; preds = %117, %109, %83
  call void @llvm.lifetime.end.p0(i64 4, ptr %18) #19
  call void @llvm.lifetime.end.p0(i64 80, ptr %17) #19
  call void @llvm.lifetime.end.p0(i64 24, ptr %16) #19
  call void @llvm.lifetime.end.p0(i64 8, ptr %15) #19
  call void @llvm.lifetime.end.p0(i64 8, ptr %14) #19
  call void @llvm.lifetime.end.p0(i64 4, ptr %13) #19
  call void @llvm.lifetime.end.p0(i64 8, ptr %12) #19
  %119 = load i32, ptr %6, align 4
  ret i32 %119
}