; Function Attrs: null_pointer_is_valid sspstrong uwtable
define hidden range(i32 0, 3) i32 @cf_export_specified_packets(ptr noundef %0, ptr noundef %1, ptr noundef %2, i32 noundef %3, i32 noundef %4) local_unnamed_addr #1 {
  %6 = alloca i32, align 4
  %7 = alloca ptr, align 8
  %8 = alloca %struct.save_callback_args_t, align 8
  %9 = alloca %struct.wtap_dump_params, align 8
  call void @llvm.lifetime.start.p0(i64 4, ptr nonnull %6) #23
  call void @llvm.lifetime.start.p0(i64 8, ptr nonnull %7) #23
  call void @llvm.lifetime.start.p0(i64 24, ptr nonnull %8) #23
  call void @llvm.lifetime.start.p0(i64 80, ptr nonnull %9) #23
  %10 = getelementptr inbounds nuw i8, ptr %8, i64 20
  store i8 1, ptr %10, align 4
  tail call void @packet_range_process_init(ptr noundef %2)
  %11 = getelementptr inbounds nuw i8, ptr %0, i64 224
  %12 = load ptr, ptr %11, align 8
  call void @wtap_dump_params_init(ptr noundef nonnull %9, ptr noundef %12)
  %13 = getelementptr inbounds nuw i8, ptr %0, i64 64
  %14 = load ptr, ptr %13, align 8
  %15 = call i32 @wtap_dump_required_file_encap_type(ptr noundef %14)
  store i32 %15, ptr %9, align 8
  %16 = getelementptr inbounds nuw i8, ptr %0, i64 128
  %17 = load i32, ptr %16, align 8
  %18 = getelementptr inbounds nuw i8, ptr %9, i64 4
  store i32 %17, ptr %18, align 4
  %19 = call zeroext i1 @file_exists(ptr noundef %1)
  br i1 %19, label %20, label %22

20:                                               ; preds = %5
  %21 = call noalias ptr (ptr, ptr, ...) @wmem_strdup_printf(ptr noundef null, ptr noundef nonnull @.str.45, ptr noundef %1)
  br label %22

22:                                               ; preds = %5, %20
  %.sink = phi ptr [ %21, %20 ], [ %1, %5 ]
  %.039 = phi ptr [ %21, %20 ], [ null, %5 ]
  %23 = call ptr @wtap_dump_open(ptr noundef %.sink, i32 noundef %3, i32 noundef %4, ptr noundef nonnull %9, ptr noundef nonnull %6, ptr noundef nonnull %7)
  %24 = getelementptr inbounds nuw i8, ptr %9, i64 32
  %25 = load ptr, ptr %24, align 8
  call void @g_free(ptr noundef %25)
  store ptr null, ptr %24, align 8
  %26 = icmp eq ptr %23, null
  br i1 %26, label %27, label %30

27:                                               ; preds = %22
  %28 = load i32, ptr %6, align 4
  %29 = load ptr, ptr %7, align 8
  call void @report_cfile_dump_open_failure(ptr noundef %1, i32 noundef %28, ptr noundef %29, i32 noundef %3)
  br label %48

30:                                               ; preds = %22
  %31 = call ptr @get_addrinfo_list()
  %32 = call zeroext i1 @wtap_dump_set_addrinfo_list(ptr noundef nonnull %23, ptr noundef %31)
  store ptr %23, ptr %8, align 8
  %33 = getelementptr inbounds nuw i8, ptr %8, i64 8
  store ptr %1, ptr %33, align 8
  %34 = getelementptr inbounds nuw i8, ptr %8, i64 16
  store i32 %3, ptr %34, align 8
  %35 = call fastcc i32 @process_specified_records(ptr noundef %0, ptr noundef %2, ptr noundef nonnull @.str.48, ptr noundef nonnull @.str.49, ptr noundef nonnull @save_record, ptr noundef nonnull %8, i1 noundef zeroext true)
  %36 = call zeroext i1 @wtap_dump_close(ptr noundef nonnull %23, ptr noundef null, ptr noundef nonnull %6, ptr noundef nonnull %7)
  switch i32 %35, label %38 [
    i32 2, label %48
    i32 1, label %37
  ]

37:                                               ; preds = %30
  %.not = icmp eq ptr %.039, null
  br i1 %.not, label %50, label %.sink.split.sink.split

38:                                               ; preds = %30
  br i1 %36, label %42, label %39

39:                                               ; preds = %38
  %40 = load i32, ptr %6, align 4
  %41 = load ptr, ptr %7, align 8
  call void @report_cfile_close_failure(ptr noundef %1, i32 noundef %40, ptr noundef %41)
  br label %48

42:                                               ; preds = %38
  %.not40 = icmp eq ptr %.039, null
  br i1 %.not40, label %50, label %43

43:                                               ; preds = %42
  %44 = call i32 @rename(ptr noundef nonnull %.039, ptr noundef %1) #23
  %45 = icmp eq i32 %44, -1
  br i1 %45, label %.thread, label %.sink.split

.thread:                                          ; preds = %43
  %46 = tail call ptr @__errno_location() #28
  %47 = load i32, ptr %46, align 4
  call void @report_rename_failure(ptr noundef nonnull %.039, ptr noundef %1, i32 noundef %47)
  br label %.sink.split.sink.split

48:                                               ; preds = %30, %39, %27
  %.not41 = icmp eq ptr %.039, null
  br i1 %.not41, label %50, label %.sink.split.sink.split

.sink.split.sink.split:                           ; preds = %48, %.thread, %37
  %.0.ph.ph = phi i32 [ 2, %37 ], [ 1, %.thread ], [ 1, %48 ]
  %49 = call i32 @unlink(ptr noundef nonnull %.039) #23
  br label %.sink.split

.sink.split:                                      ; preds = %.sink.split.sink.split, %43
  %.0.ph = phi i32 [ 0, %43 ], [ %.0.ph.ph, %.sink.split.sink.split ]
  call void @g_free(ptr noundef nonnull %.039)
  br label %50

50:                                               ; preds = %.sink.split, %48, %42, %37
  %.0 = phi i32 [ 2, %37 ], [ 0, %42 ], [ 1, %48 ], [ %.0.ph, %.sink.split ]
  call void @wtap_dump_params_cleanup(ptr noundef nonnull %9)
  call void @llvm.lifetime.end.p0(i64 80, ptr nonnull %9) #23
  call void @llvm.lifetime.end.p0(i64 24, ptr nonnull %8) #23
  call void @llvm.lifetime.end.p0(i64 8, ptr nonnull %7) #23
  call void @llvm.lifetime.end.p0(i64 4, ptr nonnull %6) #23
  ret i32 %.0
}